; ModuleID = '16/926.c'
source_filename = "16/926.c"
target datalayout = "e-m:e-p270:32:32-p271:32:32-p272:64:64-i64:64-f80:128-n8:16:32:64-S128"
target triple = "x86_64-pc-linux-gnu"

; Function Attrs: noinline nounwind uwtable
define dso_local void @fun() #0 {
  %1 = alloca i8, align 1
  %2 = call i32 @getchar()
  %3 = trunc i32 %2 to i8
  store i8 %3, i8* %1, align 1
  %4 = sext i8 %3 to i32
  %5 = icmp ne i32 %4, 10
  br i1 %5, label %6, label %7

6:                                                ; preds = %0
  call void @fun()
  br label %7

7:                                                ; preds = %6, %0
  %8 = load i8, i8* %1, align 1
  %9 = sext i8 %8 to i32
  %10 = call i32 @putchar(i32 %9)
  ret void
}

declare dso_local i32 @getchar() #1

declare dso_local i32 @putchar(i32) #1

; Function Attrs: noinline nounwind uwtable
define dso_local i32 @main() #0 {
  call void @fun()
  %1 = call i32 @getchar()
  ret i32 0
}


!llvm.module.flags = !{!0}
!llvm.ident = !{!1}

!0 = !{i32 1, !"wchar_size", i32 4}
!1 = !{!"clang version 10.0.0-4ubuntu1 "}
